target datalayout = "e-m:e-p270:32:32-p271:32:32-p272:64:64-i64:64-i128:128-f80:128-n8:16:32:64-S128"
target triple = "x86_64-pc-linux-gnu"

%struct.Min_Cube_t_ = type { ptr, i32, [1 x i32] }

; Function Attrs: inlinehint nounwind uwtable
define internal i32 @Min_CubeGetVar(ptr noundef %0, i32 noundef %1) #2 {
  %3 = alloca ptr, align 8
  %4 = alloca i32, align 4
  store ptr %0, ptr %3, align 8, !tbaa !8
  store i32 %1, ptr %4, align 4, !tbaa !11
  %5 = load ptr, ptr %3, align 8, !tbaa !8
  %6 = getelementptr inbounds nuw %struct.Min_Cube_t_, ptr %5, i32 0, i32 2
  %7 = load i32, ptr %4, align 4, !tbaa !11
  %8 = mul nsw i32 2, %7
  %9 = ashr i32 %8, 5
  %10 = sext i32 %9 to i64
  %11 = getelementptr inbounds [1 x i32], ptr %6, i64 0, i64 %10
  %12 = load i32, ptr %11, align 4, !tbaa !11
  %13 = load i32, ptr %4, align 4, !tbaa !11
  %14 = mul nsw i32 2, %13
  %15 = and i32 %14, 31
  %16 = lshr i32 %12, %15
  %17 = and i32 3, %16
  ret i32 %17
}

; Function Attrs: nounwind uwtable
define i32 @Min_CubeCheck(ptr noundef %0) #0 {
  %2 = alloca i32, align 4
  %3 = alloca ptr, align 8
  %4 = alloca i32, align 4
  %5 = alloca i32, align 4
  store ptr %0, ptr %3, align 8, !tbaa !8
  call void @llvm.lifetime.start.p0(i64 4, ptr %4) #8
  store i32 0, ptr %4, align 4, !tbaa !11
  br label %6

6:                                                ; preds = %20, %1
  %7 = load i32, ptr %4, align 4, !tbaa !11
  %8 = load ptr, ptr %3, align 8, !tbaa !8
  %9 = getelementptr inbounds nuw %struct.Min_Cube_t_, ptr %8, i32 0, i32 1
  %10 = load i32, ptr %9, align 8
  %11 = and i32 %10, 1023
  %12 = icmp slt i32 %7, %11
  br i1 %12, label %13, label %23

13:                                               ; preds = %6
  %14 = load ptr, ptr %3, align 8, !tbaa !8
  %15 = load i32, ptr %4, align 4, !tbaa !11
  %16 = call i32 @Min_CubeGetVar(ptr noundef %14, i32 noundef %15)
  %17 = icmp eq i32 %16, 0
  br i1 %17, label %18, label %19

18:                                               ; preds = %13
  store i32 0, ptr %2, align 4
  store i32 1, ptr %5, align 4
  br label %24

19:                                               ; preds = %13
  br label %20

20:                                               ; preds = %19
  %21 = load i32, ptr %4, align 4, !tbaa !11
  %22 = add nsw i32 %21, 1
  store i32 %22, ptr %4, align 4, !tbaa !11
  br label %6, !llvm.loop !43

23:                                               ; preds = %6
  store i32 1, ptr %2, align 4
  store i32 1, ptr %5, align 4
  br label %24

24:                                               ; preds = %23, %18
  call void @llvm.lifetime.end.p0(i64 4, ptr %4) #8
  %25 = load i32, ptr %2, align 4
  ret i32 %25
}