; Function Attrs: nofree norecurse nosync nounwind memory(argmem: read) uwtable
define range(i32 0, 2) i32 @Min_CubeCheck(ptr noundef readonly captures(none) %0) local_unnamed_addr #7 {
  %2 = getelementptr inbounds nuw i8, ptr %0, i64 12
  %3 = getelementptr inbounds nuw i8, ptr %0, i64 8
  %4 = load i32, ptr %3, align 8
  %5 = and i32 %4, 1023
  %.not = icmp eq i32 %5, 0
  br i1 %.not, label %._crit_edge, label %.lr.ph

6:                                                ; preds = %.lr.ph
  %7 = add nuw nsw i32 %.06, 1
  %exitcond.not = icmp eq i32 %7, %5
  br i1 %exitcond.not, label %._crit_edge, label %.lr.ph, !llvm.loop !34

.lr.ph:                                           ; preds = %1, %6
  %.06 = phi i32 [ %7, %6 ], [ 0, %1 ]
  %8 = shl nuw nsw i32 %.06, 1
  %9 = lshr i32 %.06, 4
  %10 = zext nneg i32 %9 to i64
  %11 = getelementptr inbounds nuw [1 x i32], ptr %2, i64 0, i64 %10
  %12 = load i32, ptr %11, align 4, !tbaa !3
  %13 = and i32 %8, 30
  %14 = shl nuw i32 3, %13
  %15 = and i32 %12, %14
  %16 = icmp eq i32 %15, 0
  br i1 %16, label %._crit_edge, label %6

._crit_edge:                                      ; preds = %.lr.ph, %6, %1
  %.05 = phi i32 [ 1, %1 ], [ 1, %6 ], [ 0, %.lr.ph ]
  ret i32 %.05
}